(i__main__
Stats
p0
(dp1
S'lowestCasualties'
p2
I999
sS'lastChecked'
p3
cdatetime
datetime
p4
(S'\x07\xe7\n\t\x0c-\x17\x02\x0fX'
p5
tp6
Rp7
sS'longestStreak'
p8
I0
sS'totalRunTime'
p9
cdatetime
timedelta
p10
(I0
I55
I876000
tp11
Rp12
sS'gamesWon'
p13
I0
sS'gamesLost'
p14
I0
sS'leastMoves'
p15
I999
sS'gamesPlayed'
p16
I0
sS'currentStreak'
p17
I0
sb.